	.arch armv8-a
	.file	"main.c"
	.text
.Ltext0:
	.file 0 "/home/haneul/assembly_project" "main.c"
	.section	.rodata
	.align	3
.LC0:
	.string	"\353\260\260\354\227\264\354\235\230 \355\201\254\352\270\260\353\245\274 \354\236\205\353\240\245\355\225\264\354\243\274\354\204\270\354\232\224: "
	.align	3
.LC1:
	.string	"%d"
	.align	3
.LC2:
	.string	"%d\352\260\234\354\235\230 \354\232\224\354\206\214\353\245\274 \354\236\205\353\240\245\355\225\230\354\204\270\354\232\224:\n"
	.align	3
.LC3:
	.string	"\354\232\224\354\206\214 %d: "
	.align	3
.LC4:
	.string	"\n\354\240\225\353\240\254\353\220\234 \353\260\260\354\227\264:"
	.align	3
.LC5:
	.string	"%d "
	.text
	.align	2
	.global	main
	.type	main, %function
main:
.LFB6:
	.file 1 "main.c"
	.loc 1 5 16
	.cfi_startproc
	sub	sp, sp, #48
	.cfi_def_cfa_offset 48
	stp	x29, x30, [sp, 32]
	.cfi_offset 29, -16
	.cfi_offset 30, -8
	add	x29, sp, 32
	.loc 1 5 16
	adrp	x0, :got:__stack_chk_guard
	ldr	x0, [x0, :got_lo12:__stack_chk_guard]
	ldr	x1, [x0]
	str	x1, [sp, 24]
	mov	x1, 0
	.loc 1 7 5
	adrp	x0, .LC0
	add	x0, x0, :lo12:.LC0
	bl	printf
	.loc 1 8 5
	add	x0, sp, 4
	mov	x1, x0
	adrp	x0, .LC1
	add	x0, x0, :lo12:.LC1
	bl	__isoc99_scanf
	.loc 1 10 24
	ldr	w0, [sp, 4]
	sxtw	x0, w0
	lsl	x0, x0, 2
	bl	malloc
	str	x0, [sp, 16]
	.loc 1 11 8
	ldr	x0, [sp, 16]
	cmp	x0, 0
	bne	.L2
	.loc 1 12 16
	mov	w0, 1
	b	.L8
.L2:
	.loc 1 15 5
	ldr	w0, [sp, 4]
	mov	w1, w0
	adrp	x0, .LC2
	add	x0, x0, :lo12:.LC2
	bl	printf
.LBB2:
	.loc 1 16 14
	str	wzr, [sp, 8]
	.loc 1 16 5
	b	.L4
.L5:
	.loc 1 17 9
	ldr	w0, [sp, 8]
	add	w0, w0, 1
	mov	w1, w0
	adrp	x0, .LC3
	add	x0, x0, :lo12:.LC3
	bl	printf
	.loc 1 18 26
	ldrsw	x0, [sp, 8]
	lsl	x0, x0, 2
	.loc 1 18 9
	ldr	x1, [sp, 16]
	add	x0, x1, x0
	mov	x1, x0
	adrp	x0, .LC1
	add	x0, x0, :lo12:.LC1
	bl	__isoc99_scanf
	.loc 1 16 29 discriminator 3
	ldr	w0, [sp, 8]
	add	w0, w0, 1
	str	w0, [sp, 8]
.L4:
	.loc 1 16 23 discriminator 1
	ldr	w0, [sp, 4]
	ldr	w1, [sp, 8]
	cmp	w1, w0
	blt	.L5
.LBE2:
	.loc 1 21 5
	ldr	w0, [sp, 4]
	mov	w1, w0
	ldr	x0, [sp, 16]
	bl	bubble_sort
	.loc 1 23 5
	adrp	x0, .LC4
	add	x0, x0, :lo12:.LC4
	bl	puts
.LBB3:
	.loc 1 24 14
	str	wzr, [sp, 12]
	.loc 1 24 5
	b	.L6
.L7:
	.loc 1 25 27
	ldrsw	x0, [sp, 12]
	lsl	x0, x0, 2
	ldr	x1, [sp, 16]
	add	x0, x1, x0
	.loc 1 25 9
	ldr	w0, [x0]
	mov	w1, w0
	adrp	x0, .LC5
	add	x0, x0, :lo12:.LC5
	bl	printf
	.loc 1 24 29 discriminator 3
	ldr	w0, [sp, 12]
	add	w0, w0, 1
	str	w0, [sp, 12]
.L6:
	.loc 1 24 23 discriminator 1
	ldr	w0, [sp, 4]
	ldr	w1, [sp, 12]
	cmp	w1, w0
	blt	.L7
.LBE3:
	.loc 1 27 5
	mov	w0, 10
	bl	putchar
	.loc 1 29 5
	ldr	x0, [sp, 16]
	bl	free
	.loc 1 30 12
	mov	w0, 0
.L8:
	.loc 1 31 1
	mov	w1, w0
	adrp	x0, :got:__stack_chk_guard
	ldr	x0, [x0, :got_lo12:__stack_chk_guard]
	ldr	x3, [sp, 24]
	ldr	x2, [x0]
	subs	x3, x3, x2
	mov	x2, 0
	beq	.L9
	bl	__stack_chk_fail
.L9:
	mov	w0, w1
	ldp	x29, x30, [sp, 32]
	add	sp, sp, 48
	.cfi_restore 29
	.cfi_restore 30
	.cfi_def_cfa_offset 0
	ret
	.cfi_endproc
.LFE6:
	.size	main, .-main
.Letext0:
	.file 2 "/usr/include/stdlib.h"
	.file 3 "sort.h"
	.file 4 "/usr/include/stdio.h"
	.file 5 "/usr/lib/gcc/aarch64-linux-gnu/13/include/stddef.h"
	.section	.note.GNU-stack,"",@progbits
